; Function Attrs: mustprogress nounwind uwtable
define hidden void @_ZN11JvmtiTagMap18set_needs_cleaningEv() local_unnamed_addr #0 align 2 {
  %1 = load i32, ptr @_ZN7Threads18_number_of_threadsE, align 4
  %.not8 = icmp eq i32 %1, 0
  br i1 %.not8, label %_ZN16JvmtiEnvIteratorC2Ev.exit, label %2

2:                                                ; preds = %0
  %3 = tail call align 8 ptr @llvm.threadlocal.address.p0(ptr align 8 @_ZN6Thread12_thr_currentE)
  %4 = load ptr, ptr %3, align 8
  %5 = getelementptr inbounds i8, ptr %4, i64 844
  %6 = load volatile i32, ptr %5, align 4
  %7 = add nsw i32 %6, 1
  store volatile i32 %7, ptr %5, align 4
  br label %_ZN16JvmtiEnvIteratorC2Ev.exit

_ZN16JvmtiEnvIteratorC2Ev.exit:                   ; preds = %0, %2
  %.09 = load ptr, ptr @_ZN12JvmtiEnvBase17_head_environmentE, align 8
  %.not10 = icmp eq ptr %.09, null
  br i1 %.not10, label %._crit_edge, label %.lr.ph

.lr.ph:                                           ; preds = %_ZN16JvmtiEnvIteratorC2Ev.exit, %18
  %.011 = phi ptr [ %.0, %18 ], [ %.09, %_ZN16JvmtiEnvIteratorC2Ev.exit ]
  %8 = getelementptr inbounds i8, ptr %.011, i64 376
  %9 = load volatile ptr, ptr %8, align 8
  tail call void asm sideeffect "", "~{memory},~{dirflag},~{fpsr},~{flags}"() #14, !srcloc !6
  %.not7 = icmp eq ptr %9, null
  br i1 %.not7, label %18, label %10

10:                                               ; preds = %.lr.ph
  %11 = getelementptr inbounds i8, ptr %9, i64 112
  %12 = load ptr, ptr %11, align 8
  %13 = getelementptr inbounds i8, ptr %12, i64 16
  %14 = load i32, ptr %13, align 8
  %15 = icmp ne i32 %14, 0
  %16 = getelementptr inbounds i8, ptr %9, i64 120
  %17 = zext i1 %15 to i8
  store i8 %17, ptr %16, align 8
  br label %18

18:                                               ; preds = %.lr.ph, %10
  %19 = getelementptr inbounds i8, ptr %.011, i64 16
  %.0 = load ptr, ptr %19, align 8
  %.not = icmp eq ptr %.0, null
  br i1 %.not, label %._crit_edge, label %.lr.ph, !llvm.loop !38

._crit_edge:                                      ; preds = %18, %_ZN16JvmtiEnvIteratorC2Ev.exit
  br i1 %.not8, label %_ZN16JvmtiEnvIteratorD2Ev.exit, label %20

20:                                               ; preds = %._crit_edge
  %21 = tail call align 8 ptr @llvm.threadlocal.address.p0(ptr align 8 @_ZN6Thread12_thr_currentE)
  %22 = load ptr, ptr %21, align 8
  %23 = getelementptr inbounds i8, ptr %22, i64 844
  %24 = load volatile i32, ptr %23, align 4
  %25 = add nsw i32 %24, -1
  store volatile i32 %25, ptr %23, align 4
  br label %_ZN16JvmtiEnvIteratorD2Ev.exit

_ZN16JvmtiEnvIteratorD2Ev.exit:                   ; preds = %._crit_edge, %20
  ret void
}